; Function Attrs: mustprogress nofree norecurse nosync nounwind willreturn memory(read, inaccessiblemem: none) uwtable
define dso_local noundef i64 @_Z14lua_totalbytesP9lua_Statei(ptr noundef readonly captures(none) %0, i32 noundef %1) local_unnamed_addr #5 {
  %3 = icmp slt i32 %1, 0
  %4 = getelementptr inbounds nuw i8, ptr %0, i64 24
  %5 = load ptr, ptr %4, align 8, !tbaa !30
  %6 = getelementptr inbounds nuw i8, ptr %5, i64 72
  %7 = getelementptr inbounds nuw i8, ptr %5, i64 760
  %8 = zext nneg i32 %1 to i64
  %9 = getelementptr inbounds nuw [256 x i64], ptr %7, i64 0, i64 %8
  %.in = select i1 %3, ptr %6, ptr %9
  %10 = load i64, ptr %.in, align 8, !tbaa !60
  ret i64 %10
}